ARM GAS  C:\Users\PC\AppData\Local\Temp\ccRJKlce.s 			page 1


   1              		.cpu cortex-m4
   2              		.arch armv7e-m
   3              		.fpu fpv4-sp-d16
   4              		.eabi_attribute 27, 1
   5              		.eabi_attribute 28, 1
   6              		.eabi_attribute 20, 1
   7              		.eabi_attribute 21, 1
   8              		.eabi_attribute 23, 3
   9              		.eabi_attribute 24, 1
  10              		.eabi_attribute 25, 1
  11              		.eabi_attribute 26, 1
  12              		.eabi_attribute 30, 1
  13              		.eabi_attribute 34, 1
  14              		.eabi_attribute 18, 4
  15              		.file	"CAN_Communication.c"
  16              		.text
  17              	.Ltext0:
  18              		.cfi_sections	.debug_frame
  19              		.file 1 "Core/Src/CAN_Communication.c"
  20              		.section	.rodata.CAN_Transmit.str1.4,"aMS",%progbits,1
  21              		.align	2
  22              	.LC0:
  23 0000 43414E25 		.ascii	"CAN%uTX\012\000"
  23      7554580A 
  23      00
  24              		.section	.text.CAN_Transmit,"ax",%progbits
  25              		.align	1
  26              		.global	CAN_Transmit
  27              		.syntax unified
  28              		.thumb
  29              		.thumb_func
  31              	CAN_Transmit:
  32              	.LVL0:
  33              	.LFB134:
   1:Core/Src/CAN_Communication.c **** #include "CAN_Communication.h"
   2:Core/Src/CAN_Communication.c **** 
   3:Core/Src/CAN_Communication.c **** uint8_t MessageCounter = 0;
   4:Core/Src/CAN_Communication.c **** 
   5:Core/Src/CAN_Communication.c **** extern void HAL_CAN_RxFifo0MsgPendingCallback(CAN_HandleTypeDef *hcan);
   6:Core/Src/CAN_Communication.c **** 
   7:Core/Src/CAN_Communication.c **** void CAN_Transmit(CAN_HandleTypeDef *hcan, CAN_TxHeaderTypeDef *pHeader, uint32_t *pTxMailbox, uint
   8:Core/Src/CAN_Communication.c **** {
  34              		.loc 1 8 1 view -0
  35              		.cfi_startproc
  36              		@ args = 12, pretend = 0, frame = 8
  37              		@ frame_needed = 0, uses_anonymous_args = 0
  38              		.loc 1 8 1 is_stmt 0 view .LVU1
  39 0000 2DE9F047 		push	{r4, r5, r6, r7, r8, r9, r10, lr}
  40              		.cfi_def_cfa_offset 32
  41              		.cfi_offset 4, -32
  42              		.cfi_offset 5, -28
  43              		.cfi_offset 6, -24
  44              		.cfi_offset 7, -20
  45              		.cfi_offset 8, -16
  46              		.cfi_offset 9, -12
  47              		.cfi_offset 10, -8
  48              		.cfi_offset 14, -4
ARM GAS  C:\Users\PC\AppData\Local\Temp\ccRJKlce.s 			page 2


  49 0004 82B0     		sub	sp, sp, #8
  50              		.cfi_def_cfa_offset 40
  51 0006 0746     		mov	r7, r0
  52 0008 0D46     		mov	r5, r1
  53 000a 9046     		mov	r8, r2
  54 000c 1E46     		mov	r6, r3
  55 000e 0A9C     		ldr	r4, [sp, #40]
  56 0010 BDF82C90 		ldrh	r9, [sp, #44]
   9:Core/Src/CAN_Communication.c ****     pHeader->StdId = id;
  57              		.loc 1 9 5 is_stmt 1 view .LVU2
  58              		.loc 1 9 20 is_stmt 0 view .LVU3
  59 0014 C1F80090 		str	r9, [r1]
  10:Core/Src/CAN_Communication.c ****     pHeader->DLC = 8;
  60              		.loc 1 10 5 is_stmt 1 view .LVU4
  61              		.loc 1 10 18 is_stmt 0 view .LVU5
  62 0018 0823     		movs	r3, #8
  63              	.LVL1:
  64              		.loc 1 10 18 view .LVU6
  65 001a 0B61     		str	r3, [r1, #16]
  11:Core/Src/CAN_Communication.c ****     pHeader->IDE = CAN_ID_STD;
  66              		.loc 1 11 5 is_stmt 1 view .LVU7
  67              		.loc 1 11 18 is_stmt 0 view .LVU8
  68 001c 0023     		movs	r3, #0
  69 001e 8B60     		str	r3, [r1, #8]
  12:Core/Src/CAN_Communication.c ****     pHeader->RTR = CAN_RTR_DATA;
  70              		.loc 1 12 5 is_stmt 1 view .LVU9
  71              		.loc 1 12 18 is_stmt 0 view .LVU10
  72 0020 CB60     		str	r3, [r1, #12]
  13:Core/Src/CAN_Communication.c ****     if (data_rx[7] == calc_crc(data_rx, 7))
  73              		.loc 1 13 5 is_stmt 1 view .LVU11
  74              		.loc 1 13 16 is_stmt 0 view .LVU12
  75 0022 96F807A0 		ldrb	r10, [r6, #7]	@ zero_extendqisi2
  76              		.loc 1 13 23 view .LVU13
  77 0026 0721     		movs	r1, #7
  78              	.LVL2:
  79              		.loc 1 13 23 view .LVU14
  80 0028 3046     		mov	r0, r6
  81              	.LVL3:
  82              		.loc 1 13 23 view .LVU15
  83 002a FFF7FEFF 		bl	calc_crc
  84              	.LVL4:
  85              		.loc 1 13 8 discriminator 1 view .LVU16
  86 002e 8245     		cmp	r10, r0
  87 0030 2BD0     		beq	.L7
  14:Core/Src/CAN_Communication.c ****     {
  15:Core/Src/CAN_Communication.c ****         data_tx[0] = 0x0A;
  16:Core/Src/CAN_Communication.c ****         data_tx[1] = 0x02;
  17:Core/Src/CAN_Communication.c ****         if (data_rx == CAN1_DATA_RX)
  18:Core/Src/CAN_Communication.c ****         {
  19:Core/Src/CAN_Communication.c ****             data_tx[2] = 0x0C;
  20:Core/Src/CAN_Communication.c ****         }
  21:Core/Src/CAN_Communication.c ****     }
  22:Core/Src/CAN_Communication.c ****     else
  23:Core/Src/CAN_Communication.c ****     {
  24:Core/Src/CAN_Communication.c ****         data_tx[0] = 0x00;
  88              		.loc 1 24 9 is_stmt 1 view .LVU17
  89              		.loc 1 24 20 is_stmt 0 view .LVU18
ARM GAS  C:\Users\PC\AppData\Local\Temp\ccRJKlce.s 			page 3


  90 0032 0023     		movs	r3, #0
  91 0034 2370     		strb	r3, [r4]
  25:Core/Src/CAN_Communication.c ****         data_tx[1] = 0x00;
  92              		.loc 1 25 9 is_stmt 1 view .LVU19
  93              		.loc 1 25 20 is_stmt 0 view .LVU20
  94 0036 6370     		strb	r3, [r4, #1]
  95              	.L3:
  26:Core/Src/CAN_Communication.c ****     }
  27:Core/Src/CAN_Communication.c ****     data_tx[6] = MessageCounter;
  96              		.loc 1 27 5 is_stmt 1 view .LVU21
  97              		.loc 1 27 16 is_stmt 0 view .LVU22
  98 0038 1A4B     		ldr	r3, .L9
  99 003a 1B78     		ldrb	r3, [r3]	@ zero_extendqisi2
 100 003c A371     		strb	r3, [r4, #6]
  28:Core/Src/CAN_Communication.c ****     data_tx[7] = calc_crc(data_tx, 7) & x; // make crc wrong or not 
 101              		.loc 1 28 5 is_stmt 1 view .LVU23
 102              		.loc 1 28 18 is_stmt 0 view .LVU24
 103 003e 0721     		movs	r1, #7
 104 0040 2046     		mov	r0, r4
 105 0042 FFF7FEFF 		bl	calc_crc
 106              	.LVL5:
 107              		.loc 1 28 16 discriminator 1 view .LVU25
 108 0046 9DF83030 		ldrb	r3, [sp, #48]	@ zero_extendqisi2
 109 004a 1840     		ands	r0, r0, r3
 110 004c E071     		strb	r0, [r4, #7]
  29:Core/Src/CAN_Communication.c ****     char buffer[8];
 111              		.loc 1 29 5 is_stmt 1 view .LVU26
  30:Core/Src/CAN_Communication.c ****     sprintf(buffer, "CAN%uTX\n", (hcan == &hcan1) ? 1 : 2);
 112              		.loc 1 30 5 view .LVU27
 113 004e 164B     		ldr	r3, .L9+4
 114 0050 9F42     		cmp	r7, r3
 115 0052 24D0     		beq	.L8
 116              		.loc 1 30 5 is_stmt 0 discriminator 2 view .LVU28
 117 0054 0222     		movs	r2, #2
 118              	.L4:
 119              		.loc 1 30 5 discriminator 4 view .LVU29
 120 0056 1549     		ldr	r1, .L9+8
 121 0058 6846     		mov	r0, sp
 122 005a FFF7FEFF 		bl	sprintf
 123              	.LVL6:
  31:Core/Src/CAN_Communication.c ****     USART3_SendString((unsigned char *)buffer);
 124              		.loc 1 31 5 is_stmt 1 view .LVU30
 125 005e 6846     		mov	r0, sp
 126 0060 FFF7FEFF 		bl	USART3_SendString
 127              	.LVL7:
  32:Core/Src/CAN_Communication.c ****     PrintCANLog(id, data_tx);
 128              		.loc 1 32 5 view .LVU31
 129 0064 2146     		mov	r1, r4
 130 0066 4846     		mov	r0, r9
 131 0068 FFF7FEFF 		bl	PrintCANLog
 132              	.LVL8:
  33:Core/Src/CAN_Communication.c ****     HAL_CAN_AddTxMessage(hcan, pHeader, data_tx, pTxMailbox);
 133              		.loc 1 33 5 view .LVU32
 134 006c 4346     		mov	r3, r8
 135 006e 2246     		mov	r2, r4
 136 0070 2946     		mov	r1, r5
 137 0072 3846     		mov	r0, r7
ARM GAS  C:\Users\PC\AppData\Local\Temp\ccRJKlce.s 			page 4


 138 0074 FFF7FEFF 		bl	HAL_CAN_AddTxMessage
 139              	.LVL9:
  34:Core/Src/CAN_Communication.c ****     MessageCounter = (MessageCounter + 1) & 0xF;
 140              		.loc 1 34 5 view .LVU33
 141              		.loc 1 34 43 is_stmt 0 view .LVU34
 142 0078 0A4A     		ldr	r2, .L9
 143 007a 1378     		ldrb	r3, [r2]	@ zero_extendqisi2
 144              		.loc 1 34 38 view .LVU35
 145 007c 0133     		adds	r3, r3, #1
 146              		.loc 1 34 43 view .LVU36
 147 007e 03F00F03 		and	r3, r3, #15
 148              		.loc 1 34 20 view .LVU37
 149 0082 1370     		strb	r3, [r2]
  35:Core/Src/CAN_Communication.c **** }
 150              		.loc 1 35 1 view .LVU38
 151 0084 02B0     		add	sp, sp, #8
 152              		.cfi_remember_state
 153              		.cfi_def_cfa_offset 32
 154              		@ sp needed
 155 0086 BDE8F087 		pop	{r4, r5, r6, r7, r8, r9, r10, pc}
 156              	.LVL10:
 157              	.L7:
 158              		.cfi_restore_state
  15:Core/Src/CAN_Communication.c ****         data_tx[1] = 0x02;
 159              		.loc 1 15 9 is_stmt 1 view .LVU39
  15:Core/Src/CAN_Communication.c ****         data_tx[1] = 0x02;
 160              		.loc 1 15 20 is_stmt 0 view .LVU40
 161 008a 0A23     		movs	r3, #10
 162 008c 2370     		strb	r3, [r4]
  16:Core/Src/CAN_Communication.c ****         if (data_rx == CAN1_DATA_RX)
 163              		.loc 1 16 9 is_stmt 1 view .LVU41
  16:Core/Src/CAN_Communication.c ****         if (data_rx == CAN1_DATA_RX)
 164              		.loc 1 16 20 is_stmt 0 view .LVU42
 165 008e 0223     		movs	r3, #2
 166 0090 6370     		strb	r3, [r4, #1]
  17:Core/Src/CAN_Communication.c ****         {
 167              		.loc 1 17 9 is_stmt 1 view .LVU43
  17:Core/Src/CAN_Communication.c ****         {
 168              		.loc 1 17 12 is_stmt 0 view .LVU44
 169 0092 074B     		ldr	r3, .L9+12
 170 0094 9E42     		cmp	r6, r3
 171 0096 CFD1     		bne	.L3
  19:Core/Src/CAN_Communication.c ****         }
 172              		.loc 1 19 13 is_stmt 1 view .LVU45
  19:Core/Src/CAN_Communication.c ****         }
 173              		.loc 1 19 24 is_stmt 0 view .LVU46
 174 0098 0C23     		movs	r3, #12
 175 009a A370     		strb	r3, [r4, #2]
 176 009c CCE7     		b	.L3
 177              	.L8:
  30:Core/Src/CAN_Communication.c ****     USART3_SendString((unsigned char *)buffer);
 178              		.loc 1 30 5 discriminator 1 view .LVU47
 179 009e 0122     		movs	r2, #1
 180 00a0 D9E7     		b	.L4
 181              	.L10:
 182 00a2 00BF     		.align	2
 183              	.L9:
ARM GAS  C:\Users\PC\AppData\Local\Temp\ccRJKlce.s 			page 5


 184 00a4 00000000 		.word	MessageCounter
 185 00a8 00000000 		.word	hcan1
 186 00ac 00000000 		.word	.LC0
 187 00b0 00000000 		.word	CAN1_DATA_RX
 188              		.cfi_endproc
 189              	.LFE134:
 191              		.section	.rodata.UserButton_Callback.str1.4,"aMS",%progbits,1
 192              		.align	2
 193              	.LC1:
 194 0000 4947204F 		.ascii	"IG OFF\012\000"
 194      46460A00 
 195              		.align	2
 196              	.LC2:
 197 0008 2D3E2049 		.ascii	"-> IG ON\012\000"
 197      47204F4E 
 197      0A00
 198              		.section	.text.UserButton_Callback,"ax",%progbits
 199              		.align	1
 200              		.global	UserButton_Callback
 201              		.syntax unified
 202              		.thumb
 203              		.thumb_func
 205              	UserButton_Callback:
 206              	.LFB135:
  36:Core/Src/CAN_Communication.c **** 
  37:Core/Src/CAN_Communication.c **** void UserButton_Callback(void)
  38:Core/Src/CAN_Communication.c **** {
 207              		.loc 1 38 1 is_stmt 1 view -0
 208              		.cfi_startproc
 209              		@ args = 0, pretend = 0, frame = 0
 210              		@ frame_needed = 0, uses_anonymous_args = 0
 211 0000 00B5     		push	{lr}
 212              		.cfi_def_cfa_offset 4
 213              		.cfi_offset 14, -4
 214 0002 85B0     		sub	sp, sp, #20
 215              		.cfi_def_cfa_offset 24
  39:Core/Src/CAN_Communication.c ****     USART3_SendString((uint8_t *)"IG OFF\n");
 216              		.loc 1 39 5 view .LVU49
 217 0004 1F48     		ldr	r0, .L17
 218 0006 FFF7FEFF 		bl	USART3_SendString
 219              	.LVL11:
  40:Core/Src/CAN_Communication.c ****     while (!BtnU)
 220              		.loc 1 40 5 view .LVU50
 221              	.L12:
 222              		.loc 1 40 12 discriminator 1 view .LVU51
 223              		.loc 1 40 13 is_stmt 0 discriminator 1 view .LVU52
 224 000a 0221     		movs	r1, #2
 225 000c 1E48     		ldr	r0, .L17+4
 226 000e FFF7FEFF 		bl	HAL_GPIO_ReadPin
 227              	.LVL12:
 228              		.loc 1 40 12 discriminator 1 view .LVU53
 229 0012 0028     		cmp	r0, #0
 230 0014 F9D0     		beq	.L12
 231 0016 1FE0     		b	.L13
 232              	.L14:
  41:Core/Src/CAN_Communication.c ****         ;
  42:Core/Src/CAN_Communication.c ****     while (BtnU)
ARM GAS  C:\Users\PC\AppData\Local\Temp\ccRJKlce.s 			page 6


  43:Core/Src/CAN_Communication.c ****     {
  44:Core/Src/CAN_Communication.c ****         CAN_Transmit(&hcan2, &CAN2_pHeader, &CAN2_pTxMailbox, CAN2_DATA_RX, CAN2_DATA_TX, 0xA2, 0xF
 233              		.loc 1 44 9 is_stmt 1 view .LVU54
 234 0018 FF23     		movs	r3, #255
 235 001a 0293     		str	r3, [sp, #8]
 236 001c A223     		movs	r3, #162
 237 001e 0193     		str	r3, [sp, #4]
 238 0020 1A4B     		ldr	r3, .L17+8
 239 0022 0093     		str	r3, [sp]
 240 0024 1A4B     		ldr	r3, .L17+12
 241 0026 1B4A     		ldr	r2, .L17+16
 242 0028 1B49     		ldr	r1, .L17+20
 243 002a 1C48     		ldr	r0, .L17+24
 244 002c FFF7FEFF 		bl	CAN_Transmit
 245              	.LVL13:
  45:Core/Src/CAN_Communication.c ****         HAL_Delay(2000);
 246              		.loc 1 45 9 view .LVU55
 247 0030 4FF4FA60 		mov	r0, #2000
 248 0034 FFF7FEFF 		bl	HAL_Delay
 249              	.LVL14:
  46:Core/Src/CAN_Communication.c ****         CAN_Transmit(&hcan1, &CAN1_pHeader, &CAN1_pTxMailbox, CAN1_DATA_RX, CAN1_DATA_TX, 0x12, 0);
 250              		.loc 1 46 9 view .LVU56
 251 0038 0023     		movs	r3, #0
 252 003a 0293     		str	r3, [sp, #8]
 253 003c 1223     		movs	r3, #18
 254 003e 0193     		str	r3, [sp, #4]
 255 0040 174B     		ldr	r3, .L17+28
 256 0042 0093     		str	r3, [sp]
 257 0044 174B     		ldr	r3, .L17+32
 258 0046 184A     		ldr	r2, .L17+36
 259 0048 1849     		ldr	r1, .L17+40
 260 004a 1948     		ldr	r0, .L17+44
 261 004c FFF7FEFF 		bl	CAN_Transmit
 262              	.LVL15:
  47:Core/Src/CAN_Communication.c ****         HAL_Delay(1990);
 263              		.loc 1 47 9 view .LVU57
 264 0050 40F2C670 		movw	r0, #1990
 265 0054 FFF7FEFF 		bl	HAL_Delay
 266              	.LVL16:
 267              	.L13:
  42:Core/Src/CAN_Communication.c ****     {
 268              		.loc 1 42 12 view .LVU58
 269 0058 0221     		movs	r1, #2
 270 005a 0B48     		ldr	r0, .L17+4
 271 005c FFF7FEFF 		bl	HAL_GPIO_ReadPin
 272              	.LVL17:
  42:Core/Src/CAN_Communication.c ****     {
 273              		.loc 1 42 12 is_stmt 0 discriminator 1 view .LVU59
 274 0060 0028     		cmp	r0, #0
 275 0062 D9D1     		bne	.L14
  48:Core/Src/CAN_Communication.c ****     }
  49:Core/Src/CAN_Communication.c ****     // MX_CAN1_Setup();
  50:Core/Src/CAN_Communication.c ****     // MX_CAN2_Setup();
  51:Core/Src/CAN_Communication.c ****     USART3_SendString((uint8_t *)"-> IG ON\n");
 276              		.loc 1 51 5 is_stmt 1 view .LVU60
 277 0064 1348     		ldr	r0, .L17+48
 278 0066 FFF7FEFF 		bl	USART3_SendString
ARM GAS  C:\Users\PC\AppData\Local\Temp\ccRJKlce.s 			page 7


 279              	.LVL18:
  52:Core/Src/CAN_Communication.c ****     while (!BtnU)
 280              		.loc 1 52 5 view .LVU61
 281              	.L15:
 282              		.loc 1 52 12 discriminator 1 view .LVU62
 283              		.loc 1 52 13 is_stmt 0 discriminator 1 view .LVU63
 284 006a 0221     		movs	r1, #2
 285 006c 0648     		ldr	r0, .L17+4
 286 006e FFF7FEFF 		bl	HAL_GPIO_ReadPin
 287              	.LVL19:
 288              		.loc 1 52 12 discriminator 1 view .LVU64
 289 0072 0028     		cmp	r0, #0
 290 0074 F9D0     		beq	.L15
  53:Core/Src/CAN_Communication.c ****         ;
  54:Core/Src/CAN_Communication.c ****     HAL_Delay(20);
 291              		.loc 1 54 5 is_stmt 1 view .LVU65
 292 0076 1420     		movs	r0, #20
 293 0078 FFF7FEFF 		bl	HAL_Delay
 294              	.LVL20:
  55:Core/Src/CAN_Communication.c **** }
 295              		.loc 1 55 1 is_stmt 0 view .LVU66
 296 007c 05B0     		add	sp, sp, #20
 297              		.cfi_def_cfa_offset 4
 298              		@ sp needed
 299 007e 5DF804FB 		ldr	pc, [sp], #4
 300              	.L18:
 301 0082 00BF     		.align	2
 302              	.L17:
 303 0084 00000000 		.word	.LC1
 304 0088 00000240 		.word	1073872896
 305 008c 00000000 		.word	CAN2_DATA_TX
 306 0090 00000000 		.word	CAN2_DATA_RX
 307 0094 00000000 		.word	CAN2_pTxMailbox
 308 0098 00000000 		.word	CAN2_pHeader
 309 009c 00000000 		.word	hcan2
 310 00a0 00000000 		.word	CAN1_DATA_TX
 311 00a4 00000000 		.word	CAN1_DATA_RX
 312 00a8 00000000 		.word	CAN1_pTxMailbox
 313 00ac 00000000 		.word	CAN1_pHeader
 314 00b0 00000000 		.word	hcan1
 315 00b4 08000000 		.word	.LC2
 316              		.cfi_endproc
 317              	.LFE135:
 319              		.section	.text.HAL_GPIO_EXTI_Callback,"ax",%progbits
 320              		.align	1
 321              		.global	HAL_GPIO_EXTI_Callback
 322              		.syntax unified
 323              		.thumb
 324              		.thumb_func
 326              	HAL_GPIO_EXTI_Callback:
 327              	.LVL21:
 328              	.LFB136:
  56:Core/Src/CAN_Communication.c **** 
  57:Core/Src/CAN_Communication.c **** void HAL_GPIO_EXTI_Callback(uint16_t GPIO_Pin)
  58:Core/Src/CAN_Communication.c **** {
 329              		.loc 1 58 1 is_stmt 1 view -0
 330              		.cfi_startproc
ARM GAS  C:\Users\PC\AppData\Local\Temp\ccRJKlce.s 			page 8


 331              		@ args = 0, pretend = 0, frame = 0
 332              		@ frame_needed = 0, uses_anonymous_args = 0
  59:Core/Src/CAN_Communication.c ****     if (GPIO_Pin == GPIO_PIN_1)
 333              		.loc 1 59 5 view .LVU68
 334              		.loc 1 59 8 is_stmt 0 view .LVU69
 335 0000 0228     		cmp	r0, #2
 336 0002 00D0     		beq	.L25
 337 0004 7047     		bx	lr
 338              	.L25:
  58:Core/Src/CAN_Communication.c ****     if (GPIO_Pin == GPIO_PIN_1)
 339              		.loc 1 58 1 view .LVU70
 340 0006 08B5     		push	{r3, lr}
 341              		.cfi_def_cfa_offset 8
 342              		.cfi_offset 3, -8
 343              		.cfi_offset 14, -4
  60:Core/Src/CAN_Communication.c ****     {
  61:Core/Src/CAN_Communication.c ****         HAL_Delay(20);
 344              		.loc 1 61 9 is_stmt 1 view .LVU71
 345 0008 1420     		movs	r0, #20
 346              	.LVL22:
 347              		.loc 1 61 9 is_stmt 0 view .LVU72
 348 000a FFF7FEFF 		bl	HAL_Delay
 349              	.LVL23:
  62:Core/Src/CAN_Communication.c ****         if (HAL_GPIO_ReadPin(GPIOA, GPIO_PIN_1) == GPIO_PIN_RESET)
 350              		.loc 1 62 9 is_stmt 1 view .LVU73
 351              		.loc 1 62 13 is_stmt 0 view .LVU74
 352 000e 0221     		movs	r1, #2
 353 0010 0348     		ldr	r0, .L27
 354 0012 FFF7FEFF 		bl	HAL_GPIO_ReadPin
 355              	.LVL24:
 356              		.loc 1 62 12 discriminator 1 view .LVU75
 357 0016 00B1     		cbz	r0, .L26
 358              	.L19:
  63:Core/Src/CAN_Communication.c ****             UserButton_Callback();
  64:Core/Src/CAN_Communication.c ****     }
  65:Core/Src/CAN_Communication.c **** }...
 359              		.loc 1 65 1 view .LVU76
 360 0018 08BD     		pop	{r3, pc}
 361              	.L26:
  63:Core/Src/CAN_Communication.c ****             UserButton_Callback();
 362              		.loc 1 63 13 is_stmt 1 view .LVU77
 363 001a FFF7FEFF 		bl	UserButton_Callback
 364              	.LVL25:
 365              		.loc 1 65 1 is_stmt 0 view .LVU78
 366 001e FBE7     		b	.L19
 367              	.L28:
 368              		.align	2
 369              	.L27:
 370 0020 00000240 		.word	1073872896
 371              		.cfi_endproc
 372              	.LFE136:
 374              		.global	MessageCounter
 375              		.section	.bss.MessageCounter,"aw",%nobits
 378              	MessageCounter:
 379 0000 00       		.space	1
 380              		.text
 381              	.Letext0:
ARM GAS  C:\Users\PC\AppData\Local\Temp\ccRJKlce.s 			page 9


 382              		.file 2 "C:/Users/PC/AppData/Roaming/Code/User/globalStorage/bmd.stm32-for-vscode/@xpack-dev-tools
 383              		.file 3 "C:/Users/PC/AppData/Roaming/Code/User/globalStorage/bmd.stm32-for-vscode/@xpack-dev-tools
 384              		.file 4 "Drivers/CMSIS/Device/ST/STM32F4xx/Include/stm32f405xx.h"
 385              		.file 5 "Drivers/CMSIS/Device/ST/STM32F4xx/Include/stm32f4xx.h"
 386              		.file 6 "Drivers/STM32F4xx_HAL_Driver/Inc/stm32f4xx_hal_def.h"
 387              		.file 7 "Drivers/STM32F4xx_HAL_Driver/Inc/stm32f4xx_hal_gpio.h"
 388              		.file 8 "Drivers/STM32F4xx_HAL_Driver/Inc/stm32f4xx_hal_can.h"
 389              		.file 9 "Core/Inc/CAN_Communication.h"
 390              		.file 10 "Drivers/STM32F4xx_HAL_Driver/Inc/stm32f4xx_hal.h"
 391              		.file 11 "<built-in>"
ARM GAS  C:\Users\PC\AppData\Local\Temp\ccRJKlce.s 			page 10


DEFINED SYMBOLS
                            *ABS*:00000000 CAN_Communication.c
C:\Users\PC\AppData\Local\Temp\ccRJKlce.s:21     .rodata.CAN_Transmit.str1.4:00000000 $d
C:\Users\PC\AppData\Local\Temp\ccRJKlce.s:25     .text.CAN_Transmit:00000000 $t
C:\Users\PC\AppData\Local\Temp\ccRJKlce.s:31     .text.CAN_Transmit:00000000 CAN_Transmit
C:\Users\PC\AppData\Local\Temp\ccRJKlce.s:184    .text.CAN_Transmit:000000a4 $d
C:\Users\PC\AppData\Local\Temp\ccRJKlce.s:378    .bss.MessageCounter:00000000 MessageCounter
C:\Users\PC\AppData\Local\Temp\ccRJKlce.s:192    .rodata.UserButton_Callback.str1.4:00000000 $d
C:\Users\PC\AppData\Local\Temp\ccRJKlce.s:199    .text.UserButton_Callback:00000000 $t
C:\Users\PC\AppData\Local\Temp\ccRJKlce.s:205    .text.UserButton_Callback:00000000 UserButton_Callback
C:\Users\PC\AppData\Local\Temp\ccRJKlce.s:303    .text.UserButton_Callback:00000084 $d
C:\Users\PC\AppData\Local\Temp\ccRJKlce.s:320    .text.HAL_GPIO_EXTI_Callback:00000000 $t
C:\Users\PC\AppData\Local\Temp\ccRJKlce.s:326    .text.HAL_GPIO_EXTI_Callback:00000000 HAL_GPIO_EXTI_Callback
C:\Users\PC\AppData\Local\Temp\ccRJKlce.s:370    .text.HAL_GPIO_EXTI_Callback:00000020 $d
C:\Users\PC\AppData\Local\Temp\ccRJKlce.s:379    .bss.MessageCounter:00000000 $d

UNDEFINED SYMBOLS
calc_crc
sprintf
USART3_SendString
PrintCANLog
HAL_CAN_AddTxMessage
hcan1
CAN1_DATA_RX
HAL_GPIO_ReadPin
HAL_Delay
CAN2_DATA_TX
CAN2_DATA_RX
CAN2_pTxMailbox
CAN2_pHeader
hcan2
CAN1_DATA_TX
CAN1_pTxMailbox
CAN1_pHeader
